ARM GAS  C:\Users\franf\AppData\Local\Temp\cc3BtTda.s 			page 1


   1              		.syntax unified
   2              		.cpu cortex-m3
   3              		.fpu softvfp
   4              		.eabi_attribute 20, 1
   5              		.eabi_attribute 21, 1
   6              		.eabi_attribute 23, 3
   7              		.eabi_attribute 24, 1
   8              		.eabi_attribute 25, 1
   9              		.eabi_attribute 26, 1
  10              		.eabi_attribute 30, 1
  11              		.eabi_attribute 34, 1
  12              		.eabi_attribute 18, 4
  13              		.thumb
  14              		.syntax unified
  15              		.file	"main.c"
  16              		.text
  17              	.Ltext0:
  18              		.cfi_sections	.debug_frame
  19              		.section	.text.input_data,"ax",%progbits
  20              		.align	2
  21              		.global	input_data
  22              		.thumb
  23              		.thumb_func
  24              		.type	input_data, %function
  25              	input_data:
  26              	.LFB64:
  27              		.file 1 "main.c"
   1:main.c        **** #include "project.h"
   2:main.c        **** #include "stdio.h"
   3:main.c        **** char data;
   4:main.c        **** int row = 0, column = 0;
   5:main.c        **** 
   6:main.c        **** CY_ISR(input_data)
   7:main.c        **** {
  28              		.loc 1 7 0
  29              		.cfi_startproc
  30              		@ args = 0, pretend = 0, frame = 0
  31              		@ frame_needed = 0, uses_anonymous_args = 0
  32 0000 08B5     		push	{r3, lr}
  33              		.cfi_def_cfa_offset 8
  34              		.cfi_offset 3, -8
  35              		.cfi_offset 14, -4
   8:main.c        ****     data = UART_GetChar();
  36              		.loc 1 8 0
  37 0002 FFF7FEFF 		bl	UART_GetChar
  38              	.LVL0:
  39 0006 0B4B     		ldr	r3, .L4
  40 0008 1870     		strb	r0, [r3]
   9:main.c        ****     column += 1;
  41              		.loc 1 9 0
  42 000a 0B4A     		ldr	r2, .L4+4
  43 000c 1368     		ldr	r3, [r2]
  44 000e 0133     		adds	r3, r3, #1
  45 0010 1360     		str	r3, [r2]
  10:main.c        ****     if (column == 15)
  46              		.loc 1 10 0
  47 0012 0F2B     		cmp	r3, #15
ARM GAS  C:\Users\franf\AppData\Local\Temp\cc3BtTda.s 			page 2


  48 0014 04D1     		bne	.L2
  11:main.c        ****     {
  12:main.c        ****         row = 1;
  49              		.loc 1 12 0
  50 0016 1346     		mov	r3, r2
  51 0018 0122     		movs	r2, #1
  52 001a 5A60     		str	r2, [r3, #4]
  13:main.c        ****         column = 0;
  53              		.loc 1 13 0
  54 001c 0022     		movs	r2, #0
  55 001e 1A60     		str	r2, [r3]
  56              	.L2:
  14:main.c        ****     }
  15:main.c        ****     LCD_I2C_setCursor(column,row);
  57              		.loc 1 15 0
  58 0020 054B     		ldr	r3, .L4+4
  59 0022 1979     		ldrb	r1, [r3, #4]	@ zero_extendqisi2
  60 0024 1878     		ldrb	r0, [r3]	@ zero_extendqisi2
  61 0026 FFF7FEFF 		bl	LCD_I2C_setCursor
  62              	.LVL1:
  16:main.c        ****     LCD_I2C_write(data);
  63              		.loc 1 16 0
  64 002a 024B     		ldr	r3, .L4
  65 002c 1878     		ldrb	r0, [r3]	@ zero_extendqisi2
  66 002e FFF7FEFF 		bl	LCD_I2C_write
  67              	.LVL2:
  68 0032 08BD     		pop	{r3, pc}
  69              	.L5:
  70              		.align	2
  71              	.L4:
  72 0034 00000000 		.word	data
  73 0038 00000000 		.word	.LANCHOR0
  74              		.cfi_endproc
  75              	.LFE64:
  76              		.size	input_data, .-input_data
  77              		.section	.text.main,"ax",%progbits
  78              		.align	2
  79              		.global	main
  80              		.thumb
  81              		.thumb_func
  82              		.type	main, %function
  83              	main:
  84              	.LFB65:
  17:main.c        **** }
  18:main.c        **** int main(void)
  19:main.c        **** {
  85              		.loc 1 19 0
  86              		.cfi_startproc
  87              		@ Volatile: function does not return.
  88              		@ args = 0, pretend = 0, frame = 0
  89              		@ frame_needed = 0, uses_anonymous_args = 0
  90 0000 08B5     		push	{r3, lr}
  91              		.cfi_def_cfa_offset 8
  92              		.cfi_offset 3, -8
  93              		.cfi_offset 14, -4
  20:main.c        ****     CyGlobalIntEnable;
  94              		.loc 1 20 0
ARM GAS  C:\Users\franf\AppData\Local\Temp\cc3BtTda.s 			page 3


  95              		.syntax unified
  96              	@ 20 "main.c" 1
  97 0002 62B6     		CPSIE   i
  98              	@ 0 "" 2
  21:main.c        ****     I2C_Start();
  99              		.loc 1 21 0
 100              		.thumb
 101              		.syntax unified
 102 0004 FFF7FEFF 		bl	I2C_Start
 103              	.LVL3:
  22:main.c        ****     LCD_I2C_start();
 104              		.loc 1 22 0
 105 0008 FFF7FEFF 		bl	LCD_I2C_start
 106              	.LVL4:
  23:main.c        ****     UART_Start();
 107              		.loc 1 23 0
 108 000c FFF7FEFF 		bl	UART_Start
 109              	.LVL5:
  24:main.c        ****     isrRX_StartEx(input_data);
 110              		.loc 1 24 0
 111 0010 0148     		ldr	r0, .L9
 112 0012 FFF7FEFF 		bl	isrRX_StartEx
 113              	.LVL6:
 114              	.L7:
 115 0016 FEE7     		b	.L7
 116              	.L10:
 117              		.align	2
 118              	.L9:
 119 0018 00000000 		.word	input_data
 120              		.cfi_endproc
 121              	.LFE65:
 122              		.size	main, .-main
 123              		.global	column
 124              		.global	row
 125              		.comm	data,1,1
 126              		.bss
 127              		.align	2
 128              		.set	.LANCHOR0,. + 0
 129              		.type	column, %object
 130              		.size	column, 4
 131              	column:
 132 0000 00000000 		.space	4
 133              		.type	row, %object
 134              		.size	row, 4
 135              	row:
 136 0004 00000000 		.space	4
 137              		.text
 138              	.Letext0:
 139              		.file 2 "c:\\program files (x86)\\cypress\\psoc creator\\4.4\\psoc creator\\import\\gnu\\arm\\5.4.
 140              		.file 3 "c:\\program files (x86)\\cypress\\psoc creator\\4.4\\psoc creator\\import\\gnu\\arm\\5.4.
 141              		.file 4 "Generated_Source\\PSoC5/core_cm3.h"
 142              		.file 5 "Generated_Source\\PSoC5/UART.h"
 143              		.file 6 "Generated_Source\\PSoC5/LCD_I2C_FUNCS.h"
 144              		.file 7 "Generated_Source\\PSoC5/I2C.h"
 145              		.file 8 "Generated_Source\\PSoC5/isrRX.h"