ARM GAS  C:\Users\franf\AppData\Local\Temp\ccC2KAoR.s 			page 1


   1              		.syntax unified
   2              		.cpu cortex-m3
   3              		.fpu softvfp
   4              		.eabi_attribute 20, 1
   5              		.eabi_attribute 21, 1
   6              		.eabi_attribute 23, 3
   7              		.eabi_attribute 24, 1
   8              		.eabi_attribute 25, 1
   9              		.eabi_attribute 26, 1
  10              		.eabi_attribute 30, 1
  11              		.eabi_attribute 34, 1
  12              		.eabi_attribute 18, 4
  13              		.thumb
  14              		.syntax unified
  15              		.file	"main.c"
  16              		.text
  17              	.Ltext0:
  18              		.cfi_sections	.debug_frame
  19              		.section	.text.bomb_inter,"ax",%progbits
  20              		.align	2
  21              		.global	bomb_inter
  22              		.thumb
  23              		.thumb_func
  24              		.type	bomb_inter, %function
  25              	bomb_inter:
  26              	.LFB64:
  27              		.file 1 "main.c"
   1:main.c        **** #include "project.h"
   2:main.c        **** #include "stdio.h"
   3:main.c        **** #include "stdlib.h"
   4:main.c        **** 
   5:main.c        **** #define SlaveAddress 0x68
   6:main.c        **** #define height_tank 28
   7:main.c        **** 
   8:main.c        **** 
   9:main.c        **** uint8 Tabla[7];
  10:main.c        **** char cost[1];
  11:main.c        **** uint8 min_dec,min_uni,hour_dec,hour_uni;
  12:main.c        **** char dato;
  13:main.c        **** 
  14:main.c        **** static int temperature=99;
  15:main.c        **** static int humidity=99;
  16:main.c        **** char output_dht[15];
  17:main.c        **** char percent_data[7];
  18:main.c        **** 
  19:main.c        **** char bomb_data;
  20:main.c        **** int bomb_active = 0;
  21:main.c        **** 
  22:main.c        **** CY_ISR(bomb_inter)
  23:main.c        **** {
  28              		.loc 1 23 0
  29              		.cfi_startproc
  30              		@ args = 0, pretend = 0, frame = 0
  31              		@ frame_needed = 0, uses_anonymous_args = 0
  32 0000 08B5     		push	{r3, lr}
  33              		.cfi_def_cfa_offset 8
  34              		.cfi_offset 3, -8
ARM GAS  C:\Users\franf\AppData\Local\Temp\ccC2KAoR.s 			page 2


  35              		.cfi_offset 14, -4
  24:main.c        ****     bomb_data = UART_GetChar();
  36              		.loc 1 24 0
  37 0002 FFF7FEFF 		bl	UART_GetChar
  38              	.LVL0:
  39 0006 064B     		ldr	r3, .L5
  40 0008 1870     		strb	r0, [r3]
  25:main.c        ****     if (bomb_data =='A')
  41              		.loc 1 25 0
  42 000a 4128     		cmp	r0, #65
  43 000c 02D1     		bne	.L2
  26:main.c        ****     {
  27:main.c        ****         bomb_active = 1 ;
  44              		.loc 1 27 0
  45 000e 0122     		movs	r2, #1
  46 0010 044B     		ldr	r3, .L5+4
  47 0012 1A60     		str	r2, [r3]
  48              	.L2:
  28:main.c        ****     }
  29:main.c        ****     if (bomb_data =='B')
  49              		.loc 1 29 0
  50 0014 4228     		cmp	r0, #66
  51 0016 02D1     		bne	.L1
  30:main.c        ****     {
  31:main.c        ****         bomb_active = 0 ;
  52              		.loc 1 31 0
  53 0018 0022     		movs	r2, #0
  54 001a 024B     		ldr	r3, .L5+4
  55 001c 1A60     		str	r2, [r3]
  56              	.L1:
  57 001e 08BD     		pop	{r3, pc}
  58              	.L6:
  59              		.align	2
  60              	.L5:
  61 0020 00000000 		.word	bomb_data
  62 0024 00000000 		.word	.LANCHOR0
  63              		.cfi_endproc
  64              	.LFE64:
  65              		.size	bomb_inter, .-bomb_inter
  66              		.global	__aeabi_i2d
  67              		.global	__aeabi_ddiv
  68              		.global	__aeabi_d2f
  69              		.global	__aeabi_fmul
  70              		.global	__aeabi_fdiv
  71              		.global	__aeabi_fsub
  72              		.global	__aeabi_f2d
  73              		.section	.text.HC_SR04,"ax",%progbits
  74              		.align	2
  75              		.global	HC_SR04
  76              		.thumb
  77              		.thumb_func
  78              		.type	HC_SR04, %function
  79              	HC_SR04:
  80              	.LFB65:
  32:main.c        ****     }
  33:main.c        **** }
  34:main.c        **** 
ARM GAS  C:\Users\franf\AppData\Local\Temp\ccC2KAoR.s 			page 3


  35:main.c        **** void HC_SR04()
  36:main.c        **** {
  81              		.loc 1 36 0
  82              		.cfi_startproc
  83              		@ args = 0, pretend = 0, frame = 0
  84              		@ frame_needed = 0, uses_anonymous_args = 0
  85 0000 10B5     		push	{r4, lr}
  86              		.cfi_def_cfa_offset 8
  87              		.cfi_offset 4, -8
  88              		.cfi_offset 14, -4
  89              	.LVL1:
  37:main.c        **** 
  38:main.c        ****     float distance = 0.0, aux = 0.0;
  39:main.c        ****     int time;
  40:main.c        ****     Control_Write(1);
  90              		.loc 1 40 0
  91 0002 0120     		movs	r0, #1
  92 0004 FFF7FEFF 		bl	Control_Write
  93              	.LVL2:
  41:main.c        ****     CyDelayUs(10);
  94              		.loc 1 41 0
  95 0008 0A20     		movs	r0, #10
  96 000a FFF7FEFF 		bl	CyDelayUs
  97              	.LVL3:
  42:main.c        ****     Control_Write(0);   
  98              		.loc 1 42 0
  99 000e 0020     		movs	r0, #0
 100 0010 FFF7FEFF 		bl	Control_Write
 101              	.LVL4:
 102              	.L8:
  43:main.c        ****     while(echo_Read() == 0){}
 103              		.loc 1 43 0 discriminator 1
 104 0014 FFF7FEFF 		bl	echo_Read
 105              	.LVL5:
 106 0018 0028     		cmp	r0, #0
 107 001a FBD0     		beq	.L8
 108              	.L9:
  44:main.c        ****     while(echo_Read() == 1){};
 109              		.loc 1 44 0 discriminator 1
 110 001c FFF7FEFF 		bl	echo_Read
 111              	.LVL6:
 112 0020 0128     		cmp	r0, #1
 113 0022 FBD0     		beq	.L9
  45:main.c        ****     time = 65535 - Timer_ReadCounter();
 114              		.loc 1 45 0
 115 0024 FFF7FEFF 		bl	Timer_ReadCounter
 116              	.LVL7:
  46:main.c        ****     distance = time/58.0;
 117              		.loc 1 46 0
 118 0028 C0F57F40 		rsb	r0, r0, #65280
 119              	.LVL8:
 120 002c FF30     		adds	r0, r0, #255
 121 002e FFF7FEFF 		bl	__aeabi_i2d
 122              	.LVL9:
 123 0032 0022     		movs	r2, #0
 124 0034 194B     		ldr	r3, .L11
 125 0036 FFF7FEFF 		bl	__aeabi_ddiv
ARM GAS  C:\Users\franf\AppData\Local\Temp\ccC2KAoR.s 			page 4


 126              	.LVL10:
 127 003a FFF7FEFF 		bl	__aeabi_d2f
 128              	.LVL11:
  47:main.c        ****     aux = 100 - (distance*100)/height_tank;
 129              		.loc 1 47 0
 130 003e 1849     		ldr	r1, .L11+4
 131 0040 FFF7FEFF 		bl	__aeabi_fmul
 132              	.LVL12:
 133 0044 1749     		ldr	r1, .L11+8
 134 0046 FFF7FEFF 		bl	__aeabi_fdiv
 135              	.LVL13:
 136 004a 0146     		mov	r1, r0
 137 004c 1448     		ldr	r0, .L11+4
 138 004e FFF7FEFF 		bl	__aeabi_fsub
 139              	.LVL14:
 140 0052 0446     		mov	r4, r0
 141              	.LVL15:
  48:main.c        ****     CyDelay(10);
 142              		.loc 1 48 0
 143 0054 0A20     		movs	r0, #10
 144              	.LVL16:
 145 0056 FFF7FEFF 		bl	CyDelay
 146              	.LVL17:
  49:main.c        ****     LCD_I2C_setCursor(7,0);    
 147              		.loc 1 49 0
 148 005a 0021     		movs	r1, #0
 149 005c 0720     		movs	r0, #7
 150 005e FFF7FEFF 		bl	LCD_I2C_setCursor
 151              	.LVL18:
  50:main.c        ****     LCD_I2C_print("N.A=");
 152              		.loc 1 50 0
 153 0062 1148     		ldr	r0, .L11+12
 154 0064 FFF7FEFF 		bl	LCD_I2C_print
 155              	.LVL19:
  51:main.c        ****     sprintf(percent_data,"%.1f",aux);
 156              		.loc 1 51 0
 157 0068 2046     		mov	r0, r4
 158 006a FFF7FEFF 		bl	__aeabi_f2d
 159              	.LVL20:
 160 006e 0F4C     		ldr	r4, .L11+16
 161              	.LVL21:
 162 0070 0246     		mov	r2, r0
 163 0072 0B46     		mov	r3, r1
 164 0074 0E49     		ldr	r1, .L11+20
 165 0076 2046     		mov	r0, r4
 166 0078 FFF7FEFF 		bl	sprintf
 167              	.LVL22:
  52:main.c        ****     LCD_I2C_setCursor(11,0); 
 168              		.loc 1 52 0
 169 007c 0021     		movs	r1, #0
 170 007e 0B20     		movs	r0, #11
 171 0080 FFF7FEFF 		bl	LCD_I2C_setCursor
 172              	.LVL23:
  53:main.c        ****     LCD_I2C_print(percent_data);
 173              		.loc 1 53 0
 174 0084 2046     		mov	r0, r4
 175 0086 FFF7FEFF 		bl	LCD_I2C_print
ARM GAS  C:\Users\franf\AppData\Local\Temp\ccC2KAoR.s 			page 5


 176              	.LVL24:
  54:main.c        ****     LCD_I2C_setCursor(15,0); 
 177              		.loc 1 54 0
 178 008a 0021     		movs	r1, #0
 179 008c 0F20     		movs	r0, #15
 180 008e FFF7FEFF 		bl	LCD_I2C_setCursor
 181              	.LVL25:
  55:main.c        ****     LCD_I2C_write(0x25);
 182              		.loc 1 55 0
 183 0092 2520     		movs	r0, #37
 184 0094 FFF7FEFF 		bl	LCD_I2C_write
 185              	.LVL26:
 186 0098 10BD     		pop	{r4, pc}
 187              	.L12:
 188 009a 00BF     		.align	2
 189              	.L11:
 190 009c 00004D40 		.word	1078788096
 191 00a0 0000C842 		.word	1120403456
 192 00a4 0000E041 		.word	1105199104
 193 00a8 00000000 		.word	.LC0
 194 00ac 00000000 		.word	percent_data
 195 00b0 08000000 		.word	.LC1
 196              		.cfi_endproc
 197              	.LFE65:
 198              		.size	HC_SR04, .-HC_SR04
 199              		.section	.text.RTC_data,"ax",%progbits
 200              		.align	2
 201              		.global	RTC_data
 202              		.thumb
 203              		.thumb_func
 204              		.type	RTC_data, %function
 205              	RTC_data:
 206              	.LFB66:
  56:main.c        ****     
  57:main.c        **** }
  58:main.c        **** 
  59:main.c        **** void RTC_data()
  60:main.c        **** {
 207              		.loc 1 60 0
 208              		.cfi_startproc
 209              		@ args = 0, pretend = 0, frame = 0
 210              		@ frame_needed = 0, uses_anonymous_args = 0
 211 0000 10B5     		push	{r4, lr}
 212              		.cfi_def_cfa_offset 8
 213              		.cfi_offset 4, -8
 214              		.cfi_offset 14, -4
 215              	.L14:
  61:main.c        ****     uint8 result,i;
  62:main.c        ****     do{
  63:main.c        **** 
  64:main.c        ****         result = I2C_MasterSendStart(SlaveAddress, I2C_WRITE_XFER_MODE);
 216              		.loc 1 64 0 discriminator 1
 217 0002 0021     		movs	r1, #0
 218 0004 6820     		movs	r0, #104
 219 0006 FFF7FEFF 		bl	I2C_MasterSendStart
 220              	.LVL27:
  65:main.c        ****     }
ARM GAS  C:\Users\franf\AppData\Local\Temp\ccC2KAoR.s 			page 6


  66:main.c        **** 
  67:main.c        ****     while (result != I2C_MSTR_NO_ERROR);
 221              		.loc 1 67 0 discriminator 1
 222 000a 0028     		cmp	r0, #0
 223 000c F9D1     		bne	.L14
  68:main.c        **** 
  69:main.c        ****     result = I2C_MasterWriteByte(0x00);
 224              		.loc 1 69 0
 225 000e FFF7FEFF 		bl	I2C_MasterWriteByte
 226              	.LVL28:
  70:main.c        ****     result = I2C_MasterSendRestart(SlaveAddress, I2C_READ_XFER_MODE);
 227              		.loc 1 70 0
 228 0012 0121     		movs	r1, #1
 229 0014 6820     		movs	r0, #104
 230 0016 FFF7FEFF 		bl	I2C_MasterSendRestart
 231              	.LVL29:
  71:main.c        ****     for(i=0; i<6; i++){
 232              		.loc 1 71 0
 233 001a 0024     		movs	r4, #0
 234 001c 06E0     		b	.L15
 235              	.LVL30:
 236              	.L16:
  72:main.c        ****         Tabla[i] = I2C_MasterReadByte(I2C_ACK_DATA);
 237              		.loc 1 72 0 discriminator 3
 238 001e 0120     		movs	r0, #1
 239 0020 FFF7FEFF 		bl	I2C_MasterReadByte
 240              	.LVL31:
 241 0024 064B     		ldr	r3, .L18
 242 0026 1855     		strb	r0, [r3, r4]
  71:main.c        ****     for(i=0; i<6; i++){
 243              		.loc 1 71 0 discriminator 3
 244 0028 0134     		adds	r4, r4, #1
 245              	.LVL32:
 246 002a E4B2     		uxtb	r4, r4
 247              	.LVL33:
 248              	.L15:
  71:main.c        ****     for(i=0; i<6; i++){
 249              		.loc 1 71 0 is_stmt 0 discriminator 1
 250 002c 052C     		cmp	r4, #5
 251 002e F6D9     		bls	.L16
  73:main.c        ****     }
  74:main.c        ****     Tabla[6] = I2C_MasterReadByte(I2C_NAK_DATA);
 252              		.loc 1 74 0 is_stmt 1
 253 0030 0020     		movs	r0, #0
 254 0032 FFF7FEFF 		bl	I2C_MasterReadByte
 255              	.LVL34:
 256 0036 024B     		ldr	r3, .L18
 257 0038 9871     		strb	r0, [r3, #6]
  75:main.c        ****     I2C_MasterSendStop();
 258              		.loc 1 75 0
 259 003a FFF7FEFF 		bl	I2C_MasterSendStop
 260              	.LVL35:
 261 003e 10BD     		pop	{r4, pc}
 262              	.LVL36:
 263              	.L19:
 264              		.align	2
 265              	.L18:
ARM GAS  C:\Users\franf\AppData\Local\Temp\ccC2KAoR.s 			page 7


 266 0040 00000000 		.word	Tabla
 267              		.cfi_endproc
 268              	.LFE66:
 269              		.size	RTC_data, .-RTC_data
 270              		.section	.text.RTC_show_data,"ax",%progbits
 271              		.align	2
 272              		.global	RTC_show_data
 273              		.thumb
 274              		.thumb_func
 275              		.type	RTC_show_data, %function
 276              	RTC_show_data:
 277              	.LFB67:
  76:main.c        **** }
  77:main.c        **** 
  78:main.c        **** void RTC_show_data()
  79:main.c        **** {
 278              		.loc 1 79 0
 279              		.cfi_startproc
 280              		@ args = 0, pretend = 0, frame = 0
 281              		@ frame_needed = 0, uses_anonymous_args = 0
 282 0000 38B5     		push	{r3, r4, r5, lr}
 283              		.cfi_def_cfa_offset 16
 284              		.cfi_offset 3, -16
 285              		.cfi_offset 4, -12
 286              		.cfi_offset 5, -8
 287              		.cfi_offset 14, -4
  80:main.c        ****     LCD_I2C_setCursor(0,0); 
 288              		.loc 1 80 0
 289 0002 0021     		movs	r1, #0
 290 0004 0846     		mov	r0, r1
 291 0006 FFF7FEFF 		bl	LCD_I2C_setCursor
 292              	.LVL37:
  81:main.c        ****     hour_dec= (Tabla[2]>>4)&0x03;
 293              		.loc 1 81 0
 294 000a 1A4D     		ldr	r5, .L22
 295 000c A878     		ldrb	r0, [r5, #2]	@ zero_extendqisi2
 296 000e C0F30110 		ubfx	r0, r0, #4, #2
 297 0012 194B     		ldr	r3, .L22+4
 298 0014 1870     		strb	r0, [r3]
  82:main.c        ****     itoa(hour_dec,cost,10);
 299              		.loc 1 82 0
 300 0016 194C     		ldr	r4, .L22+8
 301 0018 0A22     		movs	r2, #10
 302 001a 2146     		mov	r1, r4
 303 001c FFF7FEFF 		bl	itoa
 304              	.LVL38:
  83:main.c        ****     LCD_I2C_write(cost[0]);
 305              		.loc 1 83 0
 306 0020 2078     		ldrb	r0, [r4]	@ zero_extendqisi2
 307 0022 FFF7FEFF 		bl	LCD_I2C_write
 308              	.LVL39:
  84:main.c        ****     hour_uni=Tabla[2]&0X0F;
 309              		.loc 1 84 0
 310 0026 A878     		ldrb	r0, [r5, #2]	@ zero_extendqisi2
 311 0028 00F00F00 		and	r0, r0, #15
 312 002c 144B     		ldr	r3, .L22+12
 313 002e 1870     		strb	r0, [r3]
ARM GAS  C:\Users\franf\AppData\Local\Temp\ccC2KAoR.s 			page 8


  85:main.c        ****     itoa(hour_uni,cost,10);
 314              		.loc 1 85 0
 315 0030 0A22     		movs	r2, #10
 316 0032 2146     		mov	r1, r4
 317 0034 FFF7FEFF 		bl	itoa
 318              	.LVL40:
  86:main.c        ****     LCD_I2C_write(cost[0]);
 319              		.loc 1 86 0
 320 0038 2078     		ldrb	r0, [r4]	@ zero_extendqisi2
 321 003a FFF7FEFF 		bl	LCD_I2C_write
 322              	.LVL41:
  87:main.c        ****     LCD_I2C_write(':');
 323              		.loc 1 87 0
 324 003e 3A20     		movs	r0, #58
 325 0040 FFF7FEFF 		bl	LCD_I2C_write
 326              	.LVL42:
  88:main.c        ****     min_dec=Tabla[1]>>4;
 327              		.loc 1 88 0
 328 0044 6878     		ldrb	r0, [r5, #1]	@ zero_extendqisi2
 329 0046 0009     		lsrs	r0, r0, #4
 330 0048 0E4B     		ldr	r3, .L22+16
 331 004a 1870     		strb	r0, [r3]
  89:main.c        ****     itoa(min_dec,cost,10);
 332              		.loc 1 89 0
 333 004c 0A22     		movs	r2, #10
 334 004e 2146     		mov	r1, r4
 335 0050 FFF7FEFF 		bl	itoa
 336              	.LVL43:
  90:main.c        ****     LCD_I2C_write(cost[0]);
 337              		.loc 1 90 0
 338 0054 2078     		ldrb	r0, [r4]	@ zero_extendqisi2
 339 0056 FFF7FEFF 		bl	LCD_I2C_write
 340              	.LVL44:
  91:main.c        ****     min_uni=Tabla[1]&0x0F;
 341              		.loc 1 91 0
 342 005a 6878     		ldrb	r0, [r5, #1]	@ zero_extendqisi2
 343 005c 00F00F00 		and	r0, r0, #15
 344 0060 094B     		ldr	r3, .L22+20
 345 0062 1870     		strb	r0, [r3]
  92:main.c        ****     itoa(min_uni,cost,10);
 346              		.loc 1 92 0
 347 0064 0A22     		movs	r2, #10
 348 0066 2146     		mov	r1, r4
 349 0068 FFF7FEFF 		bl	itoa
 350              	.LVL45:
  93:main.c        ****     LCD_I2C_write(cost[0]);
 351              		.loc 1 93 0
 352 006c 2078     		ldrb	r0, [r4]	@ zero_extendqisi2
 353 006e FFF7FEFF 		bl	LCD_I2C_write
 354              	.LVL46:
 355 0072 38BD     		pop	{r3, r4, r5, pc}
 356              	.L23:
 357              		.align	2
 358              	.L22:
 359 0074 00000000 		.word	Tabla
 360 0078 00000000 		.word	hour_dec
 361 007c 00000000 		.word	cost
ARM GAS  C:\Users\franf\AppData\Local\Temp\ccC2KAoR.s 			page 9


 362 0080 00000000 		.word	hour_uni
 363 0084 00000000 		.word	min_dec
 364 0088 00000000 		.word	min_uni
 365              		.cfi_endproc
 366              	.LFE67:
 367              		.size	RTC_show_data, .-RTC_show_data
 368              		.section	.text.DHTread,"ax",%progbits
 369              		.align	2
 370              		.global	DHTread
 371              		.thumb
 372              		.thumb_func
 373              		.type	DHTread, %function
 374              	DHTread:
 375              	.LFB68:
  94:main.c        **** }
  95:main.c        **** 
  96:main.c        **** int DHTread() 
  97:main.c        **** {     
 376              		.loc 1 97 0
 377              		.cfi_startproc
 378              		@ args = 0, pretend = 0, frame = 8
 379              		@ frame_needed = 0, uses_anonymous_args = 0
 380 0000 2DE9F041 		push	{r4, r5, r6, r7, r8, lr}
 381              		.cfi_def_cfa_offset 24
 382              		.cfi_offset 4, -24
 383              		.cfi_offset 5, -20
 384              		.cfi_offset 6, -16
 385              		.cfi_offset 7, -12
 386              		.cfi_offset 8, -8
 387              		.cfi_offset 14, -4
 388 0004 82B0     		sub	sp, sp, #8
 389              		.cfi_def_cfa_offset 32
 390              	.LVL47:
  98:main.c        ****    int i;
  99:main.c        ****    uint8 bits[5]; 
 100:main.c        ****    uint8 cnt = 7; 
 101:main.c        ****    uint8 idx = 0; 
 102:main.c        ****    int   calc=0; 
 103:main.c        ****    int   timeout=0; 
 104:main.c        **** 
 105:main.c        ****    for (i=0; i< 5; i++) bits[i] = 0; 
 391              		.loc 1 105 0
 392 0006 0023     		movs	r3, #0
 393 0008 05E0     		b	.L25
 394              	.LVL48:
 395              	.L26:
 396              		.loc 1 105 0 is_stmt 0 discriminator 3
 397 000a 02AA     		add	r2, sp, #8
 398 000c 1A44     		add	r2, r2, r3
 399 000e 0021     		movs	r1, #0
 400 0010 02F8081C 		strb	r1, [r2, #-8]
 401 0014 0133     		adds	r3, r3, #1
 402              	.LVL49:
 403              	.L25:
 404              		.loc 1 105 0 discriminator 1
 405 0016 042B     		cmp	r3, #4
 406 0018 F7DD     		ble	.L26
ARM GAS  C:\Users\franf\AppData\Local\Temp\ccC2KAoR.s 			page 10


 106:main.c        ****    DHT_Write(0u); 
 407              		.loc 1 106 0 is_stmt 1
 408 001a 0020     		movs	r0, #0
 409 001c FFF7FEFF 		bl	DHT_Write
 410              	.LVL50:
 107:main.c        ****    CyDelay(19); 
 411              		.loc 1 107 0
 412 0020 1320     		movs	r0, #19
 413 0022 FFF7FEFF 		bl	CyDelay
 414              	.LVL51:
 108:main.c        ****    DHT_Write(1u); 
 415              		.loc 1 108 0
 416 0026 0120     		movs	r0, #1
 417 0028 FFF7FEFF 		bl	DHT_Write
 418              	.LVL52:
 103:main.c        **** 
 419              		.loc 1 103 0
 420 002c 0027     		movs	r7, #0
 109:main.c        ****    while(DHT_Read()==1) 
 421              		.loc 1 109 0
 422 002e 00E0     		b	.L27
 423              	.LVL53:
 424              	.L28:
 110:main.c        ****    { 
 111:main.c        ****        timeout++; 
 425              		.loc 1 111 0
 426 0030 0137     		adds	r7, r7, #1
 427              	.LVL54:
 428              	.L27:
 109:main.c        ****    while(DHT_Read()==1) 
 429              		.loc 1 109 0
 430 0032 FFF7FEFF 		bl	DHT_Read
 431              	.LVL55:
 432 0036 0128     		cmp	r0, #1
 433 0038 FAD0     		beq	.L28
 434 003a 00E0     		b	.L29
 435              	.L30:
 112:main.c        ****    } 
 113:main.c        ****    while(DHT_Read()==0) 
 114:main.c        ****    {         
 115:main.c        ****        timeout++; 
 436              		.loc 1 115 0
 437 003c 0137     		adds	r7, r7, #1
 438              	.LVL56:
 439              	.L29:
 113:main.c        ****    {         
 440              		.loc 1 113 0
 441 003e FFF7FEFF 		bl	DHT_Read
 442              	.LVL57:
 443 0042 0028     		cmp	r0, #0
 444 0044 FAD0     		beq	.L30
 445              	.L31:
 116:main.c        ****    } 
 117:main.c        ****    calc=timeout; 
 118:main.c        ****    timeout=0; 
 119:main.c        ****    while(DHT_Read()==1); 
 446              		.loc 1 119 0 discriminator 1
ARM GAS  C:\Users\franf\AppData\Local\Temp\ccC2KAoR.s 			page 11


 447 0046 FFF7FEFF 		bl	DHT_Read
 448              	.LVL58:
 449 004a 0128     		cmp	r0, #1
 450 004c FBD0     		beq	.L31
 451 004e 4FF00008 		mov	r8, #0
 452 0052 0725     		movs	r5, #7
 453 0054 4646     		mov	r6, r8
 454 0056 22E0     		b	.L32
 455              	.LVL59:
 456              	.L33:
 120:main.c        ****    for (i=0; i<40; i++) 
 121:main.c        **** 	{ 
 122:main.c        ****        timeout=0; 
 123:main.c        ****        while(DHT_Read()==0); 
 457              		.loc 1 123 0 discriminator 1
 458 0058 FFF7FEFF 		bl	DHT_Read
 459              	.LVL60:
 460 005c 0028     		cmp	r0, #0
 461 005e FBD0     		beq	.L33
 462 0060 0024     		movs	r4, #0
 463 0062 00E0     		b	.L34
 464              	.LVL61:
 465              	.L35:
 124:main.c        ****        while(DHT_Read()==1) 
 125:main.c        ****            timeout++; 
 466              		.loc 1 125 0
 467 0064 0134     		adds	r4, r4, #1
 468              	.LVL62:
 469              	.L34:
 124:main.c        ****        while(DHT_Read()==1) 
 470              		.loc 1 124 0
 471 0066 FFF7FEFF 		bl	DHT_Read
 472              	.LVL63:
 473 006a 0128     		cmp	r0, #1
 474 006c FAD0     		beq	.L35
 126:main.c        ****        //Data acquiring point 
 127:main.c        ****        if ((timeout) > (calc/2)) 
 475              		.loc 1 127 0
 476 006e 07EBD773 		add	r3, r7, r7, lsr #31
 477 0072 B4EB630F 		cmp	r4, r3, asr #1
 478 0076 08DD     		ble	.L36
 128:main.c        ****            bits[idx] |= (1 << cnt); 
 479              		.loc 1 128 0
 480 0078 0123     		movs	r3, #1
 481 007a AB40     		lsls	r3, r3, r5
 482 007c 02AA     		add	r2, sp, #8
 483 007e 4244     		add	r2, r2, r8
 484 0080 12F8081C 		ldrb	r1, [r2, #-8]	@ zero_extendqisi2
 485 0084 0B43     		orrs	r3, r3, r1
 486 0086 02F8083C 		strb	r3, [r2, #-8]
 487              	.L36:
 129:main.c        ****        if (cnt == 0)   // next byte? 
 488              		.loc 1 129 0
 489 008a 2DB9     		cbnz	r5, .L37
 490              	.LVL64:
 130:main.c        ****    	{ 
 131:main.c        ****    		cnt = 7;    // restart at MSB 
ARM GAS  C:\Users\franf\AppData\Local\Temp\ccC2KAoR.s 			page 12


 132:main.c        ****    		idx++;      // next byte! 
 491              		.loc 1 132 0
 492 008c 08F10108 		add	r8, r8, #1
 493              	.LVL65:
 494 0090 5FFA88F8 		uxtb	r8, r8
 495              	.LVL66:
 131:main.c        ****    		idx++;      // next byte! 
 496              		.loc 1 131 0
 497 0094 0725     		movs	r5, #7
 498 0096 01E0     		b	.L38
 499              	.LVL67:
 500              	.L37:
 133:main.c        ****    	} 
 134:main.c        ****    	else cnt--; 
 501              		.loc 1 134 0
 502 0098 013D     		subs	r5, r5, #1
 503              	.LVL68:
 504 009a EDB2     		uxtb	r5, r5
 505              	.LVL69:
 506              	.L38:
 120:main.c        **** 	{ 
 507              		.loc 1 120 0 discriminator 2
 508 009c 0136     		adds	r6, r6, #1
 509              	.LVL70:
 510              	.L32:
 120:main.c        **** 	{ 
 511              		.loc 1 120 0 is_stmt 0 discriminator 1
 512 009e 272E     		cmp	r6, #39
 513 00a0 DADD     		ble	.L33
 135:main.c        ****    } 
 136:main.c        ****    humidity    = bits[0];  
 514              		.loc 1 136 0 is_stmt 1
 515 00a2 9DF80020 		ldrb	r2, [sp]	@ zero_extendqisi2
 516 00a6 064B     		ldr	r3, .L40
 517 00a8 1A60     		str	r2, [r3]
 137:main.c        ****    temperature = bits[2];  
 518              		.loc 1 137 0
 519 00aa 9DF80220 		ldrb	r2, [sp, #2]	@ zero_extendqisi2
 520 00ae 5A60     		str	r2, [r3, #4]
 138:main.c        ****    CyDelay(1); 
 521              		.loc 1 138 0
 522 00b0 0120     		movs	r0, #1
 523 00b2 FFF7FEFF 		bl	CyDelay
 524              	.LVL71:
 139:main.c        ****    return 0; 
 140:main.c        **** }
 525              		.loc 1 140 0
 526 00b6 0020     		movs	r0, #0
 527 00b8 02B0     		add	sp, sp, #8
 528              		.cfi_def_cfa_offset 24
 529              		@ sp needed
 530 00ba BDE8F081 		pop	{r4, r5, r6, r7, r8, pc}
 531              	.LVL72:
 532              	.L41:
 533 00be 00BF     		.align	2
 534              	.L40:
 535 00c0 00000000 		.word	.LANCHOR1
ARM GAS  C:\Users\franf\AppData\Local\Temp\ccC2KAoR.s 			page 13


 536              		.cfi_endproc
 537              	.LFE68:
 538              		.size	DHTread, .-DHTread
 539              		.section	.text.main,"ax",%progbits
 540              		.align	2
 541              		.global	main
 542              		.thumb
 543              		.thumb_func
 544              		.type	main, %function
 545              	main:
 546              	.LFB69:
 141:main.c        **** 
 142:main.c        **** char temp_RX[5];
 143:main.c        **** char hum_RX[5];
 144:main.c        **** 
 145:main.c        **** int main(void)
 146:main.c        **** {
 547              		.loc 1 146 0
 548              		.cfi_startproc
 549              		@ Volatile: function does not return.
 550              		@ args = 0, pretend = 0, frame = 0
 551              		@ frame_needed = 0, uses_anonymous_args = 0
 552 0000 80B5     		push	{r7, lr}
 553              		.cfi_def_cfa_offset 8
 554              		.cfi_offset 7, -8
 555              		.cfi_offset 14, -4
 147:main.c        ****     CyGlobalIntEnable;
 556              		.loc 1 147 0
 557              		.syntax unified
 558              	@ 147 "main.c" 1
 559 0002 62B6     		CPSIE   i
 560              	@ 0 "" 2
 148:main.c        ****     I2C_Start();
 561              		.loc 1 148 0
 562              		.thumb
 563              		.syntax unified
 564 0004 FFF7FEFF 		bl	I2C_Start
 565              	.LVL73:
 149:main.c        ****     LCD_I2C_start();
 566              		.loc 1 149 0
 567 0008 FFF7FEFF 		bl	LCD_I2C_start
 568              	.LVL74:
 150:main.c        ****     UART_Start();
 569              		.loc 1 150 0
 570 000c FFF7FEFF 		bl	UART_Start
 571              	.LVL75:
 151:main.c        ****     Timer_Start();
 572              		.loc 1 151 0
 573 0010 FFF7FEFF 		bl	Timer_Start
 574              	.LVL76:
 152:main.c        ****     Clock_Start();
 575              		.loc 1 152 0
 576 0014 FFF7FEFF 		bl	Clock_Start
 577              	.LVL77:
 153:main.c        ****     isrRX_StartEx(bomb_inter);
 578              		.loc 1 153 0
 579 0018 2C48     		ldr	r0, .L45
ARM GAS  C:\Users\franf\AppData\Local\Temp\ccC2KAoR.s 			page 14


 580 001a FFF7FEFF 		bl	isrRX_StartEx
 581              	.LVL78:
 582              	.L43:
 154:main.c        ****     for(;;)
 155:main.c        ****     {
 156:main.c        ****         Bomb_Write(bomb_active);
 583              		.loc 1 156 0 discriminator 1
 584 001e 2C4B     		ldr	r3, .L45+4
 585 0020 1878     		ldrb	r0, [r3]	@ zero_extendqisi2
 586 0022 FFF7FEFF 		bl	Bomb_Write
 587              	.LVL79:
 157:main.c        ****         HC_SR04();
 588              		.loc 1 157 0 discriminator 1
 589 0026 FFF7FEFF 		bl	HC_SR04
 590              	.LVL80:
 158:main.c        ****         RTC_data();
 591              		.loc 1 158 0 discriminator 1
 592 002a FFF7FEFF 		bl	RTC_data
 593              	.LVL81:
 159:main.c        ****         RTC_show_data();   
 594              		.loc 1 159 0 discriminator 1
 595 002e FFF7FEFF 		bl	RTC_show_data
 596              	.LVL82:
 160:main.c        ****         DHTread();
 597              		.loc 1 160 0 discriminator 1
 598 0032 FFF7FEFF 		bl	DHTread
 599              	.LVL83:
 161:main.c        ****         sprintf(temp_RX,"%i",temperature);
 600              		.loc 1 161 0 discriminator 1
 601 0036 274C     		ldr	r4, .L45+8
 602 0038 274F     		ldr	r7, .L45+12
 603 003a 284E     		ldr	r6, .L45+16
 604 003c 6268     		ldr	r2, [r4, #4]
 605 003e 3946     		mov	r1, r7
 606 0040 3046     		mov	r0, r6
 607 0042 FFF7FEFF 		bl	sprintf
 608              	.LVL84:
 162:main.c        ****         sprintf(hum_RX,"%i",humidity);
 609              		.loc 1 162 0 discriminator 1
 610 0046 264D     		ldr	r5, .L45+20
 611 0048 2268     		ldr	r2, [r4]
 612 004a 3946     		mov	r1, r7
 613 004c 2846     		mov	r0, r5
 614 004e FFF7FEFF 		bl	sprintf
 615              	.LVL85:
 163:main.c        ****         sprintf(output_dht,"Tem=%i C Hum=%i",temperature, humidity);
 616              		.loc 1 163 0 discriminator 1
 617 0052 244F     		ldr	r7, .L45+24
 618 0054 2368     		ldr	r3, [r4]
 619 0056 6268     		ldr	r2, [r4, #4]
 620 0058 2349     		ldr	r1, .L45+28
 621 005a 3846     		mov	r0, r7
 622 005c FFF7FEFF 		bl	sprintf
 623              	.LVL86:
 164:main.c        ****         LCD_I2C_setCursor(0,1);    
 624              		.loc 1 164 0 discriminator 1
 625 0060 0121     		movs	r1, #1
ARM GAS  C:\Users\franf\AppData\Local\Temp\ccC2KAoR.s 			page 15


 626 0062 0020     		movs	r0, #0
 627 0064 FFF7FEFF 		bl	LCD_I2C_setCursor
 628              	.LVL87:
 165:main.c        ****         LCD_I2C_print(output_dht);
 629              		.loc 1 165 0 discriminator 1
 630 0068 3846     		mov	r0, r7
 631 006a FFF7FEFF 		bl	LCD_I2C_print
 632              	.LVL88:
 166:main.c        ****         LCD_I2C_setCursor(6,1); 
 633              		.loc 1 166 0 discriminator 1
 634 006e 0121     		movs	r1, #1
 635 0070 0620     		movs	r0, #6
 636 0072 FFF7FEFF 		bl	LCD_I2C_setCursor
 637              	.LVL89:
 167:main.c        ****         LCD_I2C_write(0xDF);
 638              		.loc 1 167 0 discriminator 1
 639 0076 DF20     		movs	r0, #223
 640 0078 FFF7FEFF 		bl	LCD_I2C_write
 641              	.LVL90:
 168:main.c        ****         LCD_I2C_setCursor(15,1); 
 642              		.loc 1 168 0 discriminator 1
 643 007c 0121     		movs	r1, #1
 644 007e 0F20     		movs	r0, #15
 645 0080 FFF7FEFF 		bl	LCD_I2C_setCursor
 646              	.LVL91:
 169:main.c        ****         LCD_I2C_write(0x25);
 647              		.loc 1 169 0 discriminator 1
 648 0084 2520     		movs	r0, #37
 649 0086 FFF7FEFF 		bl	LCD_I2C_write
 650              	.LVL92:
 170:main.c        ****         UART_PutString(temp_RX);
 651              		.loc 1 170 0 discriminator 1
 652 008a 3046     		mov	r0, r6
 653 008c FFF7FEFF 		bl	UART_PutString
 654              	.LVL93:
 171:main.c        ****         UART_PutString(" C ");
 655              		.loc 1 171 0 discriminator 1
 656 0090 1648     		ldr	r0, .L45+32
 657 0092 FFF7FEFF 		bl	UART_PutString
 658              	.LVL94:
 172:main.c        ****         UART_PutString("|");
 659              		.loc 1 172 0 discriminator 1
 660 0096 164C     		ldr	r4, .L45+36
 661 0098 2046     		mov	r0, r4
 662 009a FFF7FEFF 		bl	UART_PutString
 663              	.LVL95:
 173:main.c        ****         UART_PutString(hum_RX);
 664              		.loc 1 173 0 discriminator 1
 665 009e 2846     		mov	r0, r5
 666 00a0 FFF7FEFF 		bl	UART_PutString
 667              	.LVL96:
 174:main.c        ****         UART_PutString(" %H ");
 668              		.loc 1 174 0 discriminator 1
 669 00a4 1348     		ldr	r0, .L45+40
 670 00a6 FFF7FEFF 		bl	UART_PutString
 671              	.LVL97:
 175:main.c        ****         UART_PutString("|");
ARM GAS  C:\Users\franf\AppData\Local\Temp\ccC2KAoR.s 			page 16


 672              		.loc 1 175 0 discriminator 1
 673 00aa 2046     		mov	r0, r4
 674 00ac FFF7FEFF 		bl	UART_PutString
 675              	.LVL98:
 176:main.c        ****         UART_PutString(percent_data);
 676              		.loc 1 176 0 discriminator 1
 677 00b0 1148     		ldr	r0, .L45+44
 678 00b2 FFF7FEFF 		bl	UART_PutString
 679              	.LVL99:
 177:main.c        ****         UART_PutString(" % ");
 680              		.loc 1 177 0 discriminator 1
 681 00b6 1148     		ldr	r0, .L45+48
 682 00b8 FFF7FEFF 		bl	UART_PutString
 683              	.LVL100:
 178:main.c        ****         UART_PutString("|");
 684              		.loc 1 178 0 discriminator 1
 685 00bc 2046     		mov	r0, r4
 686 00be FFF7FEFF 		bl	UART_PutString
 687              	.LVL101:
 179:main.c        ****         
 180:main.c        ****         
 181:main.c        ****         CyDelay(3000);
 688              		.loc 1 181 0 discriminator 1
 689 00c2 40F6B830 		movw	r0, #3000
 690 00c6 FFF7FEFF 		bl	CyDelay
 691              	.LVL102:
 692 00ca A8E7     		b	.L43
 693              	.L46:
 694              		.align	2
 695              	.L45:
 696 00cc 00000000 		.word	bomb_inter
 697 00d0 00000000 		.word	.LANCHOR0
 698 00d4 00000000 		.word	.LANCHOR1
 699 00d8 10000000 		.word	.LC2
 700 00dc 00000000 		.word	temp_RX
 701 00e0 00000000 		.word	hum_RX
 702 00e4 00000000 		.word	output_dht
 703 00e8 14000000 		.word	.LC3
 704 00ec 24000000 		.word	.LC4
 705 00f0 28000000 		.word	.LC5
 706 00f4 2C000000 		.word	.LC6
 707 00f8 00000000 		.word	percent_data
 708 00fc 34000000 		.word	.LC7
 709              		.cfi_endproc
 710              	.LFE69:
 711              		.size	main, .-main
 712              		.comm	hum_RX,5,4
 713              		.comm	temp_RX,5,4
 714              		.global	bomb_active
 715              		.comm	bomb_data,1,1
 716              		.comm	percent_data,7,4
 717              		.comm	output_dht,15,4
 718              		.comm	dato,1,1
 719              		.comm	hour_uni,1,1
 720              		.comm	hour_dec,1,1
 721              		.comm	min_uni,1,1
 722              		.comm	min_dec,1,1
ARM GAS  C:\Users\franf\AppData\Local\Temp\ccC2KAoR.s 			page 17


 723              		.comm	cost,1,4
 724              		.comm	Tabla,7,4
 725              		.data
 726              		.align	2
 727              		.set	.LANCHOR1,. + 0
 728              		.type	humidity, %object
 729              		.size	humidity, 4
 730              	humidity:
 731 0000 63000000 		.word	99
 732              		.type	temperature, %object
 733              		.size	temperature, 4
 734              	temperature:
 735 0004 63000000 		.word	99
 736              		.section	.rodata.str1.4,"aMS",%progbits,1
 737              		.align	2
 738              	.LC0:
 739 0000 4E2E413D 		.ascii	"N.A=\000"
 739      00
 740 0005 000000   		.space	3
 741              	.LC1:
 742 0008 252E3166 		.ascii	"%.1f\000"
 742      00
 743 000d 000000   		.space	3
 744              	.LC2:
 745 0010 256900   		.ascii	"%i\000"
 746 0013 00       		.space	1
 747              	.LC3:
 748 0014 54656D3D 		.ascii	"Tem=%i C Hum=%i\000"
 748      25692043 
 748      2048756D 
 748      3D256900 
 749              	.LC4:
 750 0024 20432000 		.ascii	" C \000"
 751              	.LC5:
 752 0028 7C00     		.ascii	"|\000"
 753 002a 0000     		.space	2
 754              	.LC6:
 755 002c 20254820 		.ascii	" %H \000"
 755      00
 756 0031 000000   		.space	3
 757              	.LC7:
 758 0034 20252000 		.ascii	" % \000"
 759              		.bss
 760              		.align	2
 761              		.set	.LANCHOR0,. + 0
 762              		.type	bomb_active, %object
 763              		.size	bomb_active, 4
 764              	bomb_active:
 765 0000 00000000 		.space	4
 766              		.text
 767              	.Letext0:
 768              		.file 2 "c:\\program files (x86)\\cypress\\psoc creator\\4.4\\psoc creator\\import\\gnu\\arm\\5.4.
 769              		.file 3 "c:\\program files (x86)\\cypress\\psoc creator\\4.4\\psoc creator\\import\\gnu\\arm\\5.4.
 770              		.file 4 "Generated_Source\\PSoC5/cytypes.h"
 771              		.file 5 "Generated_Source\\PSoC5/core_cm3.h"
 772              		.file 6 "Generated_Source\\PSoC5/UART.h"
 773              		.file 7 "Generated_Source\\PSoC5/Control.h"
ARM GAS  C:\Users\franf\AppData\Local\Temp\ccC2KAoR.s 			page 18


 774              		.file 8 "Generated_Source\\PSoC5/CyLib.h"
 775              		.file 9 "Generated_Source\\PSoC5/echo.h"
 776              		.file 10 "Generated_Source\\PSoC5/Timer.h"
 777              		.file 11 "Generated_Source\\PSoC5/LCD_I2C_FUNCS.h"
 778              		.file 12 "c:\\program files (x86)\\cypress\\psoc creator\\4.4\\psoc creator\\import\\gnu\\arm\\5.4
 779              		.file 13 "Generated_Source\\PSoC5/I2C.h"
 780              		.file 14 "c:\\program files (x86)\\cypress\\psoc creator\\4.4\\psoc creator\\import\\gnu\\arm\\5.4
 781              		.file 15 "Generated_Source\\PSoC5/DHT.h"
 782              		.file 16 "Generated_Source\\PSoC5/Clock.h"
 783              		.file 17 "Generated_Source\\PSoC5/isrRX.h"
 784              		.file 18 "Generated_Source\\PSoC5/Bomb.h"